; Function Attrs: mustprogress nounwind uwtable
define dso_local void @_ZN4llvm11PassBuilder25invokePeepholeEPCallbacksERNS_11PassManagerINS_8FunctionENS_15AnalysisManagerIS2_JEEEJEEENS_17OptimizationLevelE(ptr noundef nonnull align 8 dereferenceable(2208) %0, ptr noundef nonnull align 8 dereferenceable(24) %1, i64 %2) local_unnamed_addr #0 align 2 {
  %4 = alloca %"class.llvm::OptimizationLevel", align 8
  %5 = getelementptr inbounds nuw i8, ptr %0, i64 208
  %6 = load ptr, ptr %5, align 8
  %7 = tail call noundef i64 @_ZNK4llvm15SmallVectorBaseIjE4sizeEv(ptr noundef nonnull align 8 dereferenceable(16) %5) #18
  %8 = getelementptr inbounds %"class.std::function.155", ptr %6, i64 %7
  %.not10 = icmp eq i64 %7, 0
  br i1 %.not10, label %._crit_edge, label %.lr.ph

.lr.ph:                                           ; preds = %3, %_ZNKSt8functionIFvRN4llvm11PassManagerINS0_8FunctionENS0_15AnalysisManagerIS2_JEEEJEEENS0_17OptimizationLevelEEEclES6_S7_.exit
  %.011 = phi ptr [ %14, %_ZNKSt8functionIFvRN4llvm11PassManagerINS0_8FunctionENS0_15AnalysisManagerIS2_JEEEJEEENS0_17OptimizationLevelEEEclES6_S7_.exit ], [ %6, %3 ]
  call void @llvm.lifetime.start.p0(i64 8, ptr nonnull %4)
  store i64 %2, ptr %4, align 8
  %9 = getelementptr inbounds nuw i8, ptr %.011, i64 16
  %10 = load ptr, ptr %9, align 8
  %.not.i.i = icmp eq ptr %10, null
  br i1 %.not.i.i, label %11, label %_ZNKSt8functionIFvRN4llvm11PassManagerINS0_8FunctionENS0_15AnalysisManagerIS2_JEEEJEEENS0_17OptimizationLevelEEEclES6_S7_.exit

11:                                               ; preds = %.lr.ph
  call void @_ZSt25__throw_bad_function_callv() #19
  unreachable

_ZNKSt8functionIFvRN4llvm11PassManagerINS0_8FunctionENS0_15AnalysisManagerIS2_JEEEJEEENS0_17OptimizationLevelEEEclES6_S7_.exit: ; preds = %.lr.ph
  %12 = getelementptr inbounds nuw i8, ptr %.011, i64 24
  %13 = load ptr, ptr %12, align 8
  call void %13(ptr noundef nonnull align 8 dereferenceable(16) %.011, ptr noundef nonnull align 8 dereferenceable(24) %1, ptr noundef nonnull align 4 dereferenceable(8) %4) #18
  call void @llvm.lifetime.end.p0(i64 8, ptr nonnull %4)
  %14 = getelementptr inbounds i8, ptr %.011, i64 32
  %.not = icmp eq ptr %14, %8
  br i1 %.not, label %._crit_edge, label %.lr.ph

._crit_edge:                                      ; preds = %_ZNKSt8functionIFvRN4llvm11PassManagerINS0_8FunctionENS0_15AnalysisManagerIS2_JEEEJEEENS0_17OptimizationLevelEEEclES6_S7_.exit, %3
  ret void
}